target datalayout = "e-m:e-p270:32:32-p271:32:32-p272:64:64-i64:64-i128:128-f80:128-n8:16:32:64-S128"
target triple = "x86_64-pc-linux-gnu"

%"struct.faiss::OnDiskInvertedLists" = type <{ %"struct.faiss::InvertedLists.base", [7 x i8], %"class.std::vector.5", %"class.std::__cxx11::list", %"class.std::__cxx11::basic_string", i64, ptr, i8, [7 x i8], ptr, ptr, i32, [4 x i8] }>
%"struct.faiss::InvertedLists.base" = type <{ ptr, i64, i64, i8 }>
%"class.std::vector.5" = type { %"struct.std::_Vector_base.6" }
%"struct.std::_Vector_base.6" = type { %"struct.std::_Vector_base<faiss::OnDiskOneList, std::allocator<faiss::OnDiskOneList>>::_Vector_impl" }
%"struct.std::_Vector_base<faiss::OnDiskOneList, std::allocator<faiss::OnDiskOneList>>::_Vector_impl" = type { %"struct.std::_Vector_base<faiss::OnDiskOneList, std::allocator<faiss::OnDiskOneList>>::_Vector_impl_data" }
%"struct.std::_Vector_base<faiss::OnDiskOneList, std::allocator<faiss::OnDiskOneList>>::_Vector_impl_data" = type { ptr, ptr, ptr }
%"class.std::__cxx11::list" = type { %"class.std::__cxx11::_List_base" }
%"class.std::__cxx11::_List_base" = type { %"struct.std::__cxx11::_List_base<faiss::OnDiskInvertedLists::Slot, std::allocator<faiss::OnDiskInvertedLists::Slot>>::_List_impl" }
%"struct.std::__cxx11::_List_base<faiss::OnDiskInvertedLists::Slot, std::allocator<faiss::OnDiskInvertedLists::Slot>>::_List_impl" = type { %"struct.std::__detail::_List_node_header" }
%"struct.std::__detail::_List_node_header" = type { %"struct.std::__detail::_List_node_base", i64 }
%"struct.std::__detail::_List_node_base" = type { ptr, ptr }
%"class.std::__cxx11::basic_string" = type { %"struct.std::__cxx11::basic_string<char>::_Alloc_hider", i64, %union.anon }
%"struct.std::__cxx11::basic_string<char>::_Alloc_hider" = type { ptr }
%union.anon = type { i64, [8 x i8] }
%"struct.faiss::OnDiskOneList" = type { i64, i64, i64 }
%"struct.faiss::InvertedLists" = type <{ ptr, i64, i64, i8, [7 x i8] }>

; Function Attrs: mustprogress nounwind uwtable
define linkonce_odr noundef nonnull align 8 dereferenceable(24) ptr @_ZNSt6vectorIN5faiss13OnDiskOneListESaIS1_EEixEm(ptr noundef nonnull align 8 dereferenceable(24) %0, i64 noundef %1) #0 comdat align 2 {
  %3 = alloca ptr, align 8
  %4 = alloca i64, align 8
  store ptr %0, ptr %3, align 8
  store i64 %1, ptr %4, align 8
  %5 = load ptr, ptr %3, align 8
  %6 = getelementptr inbounds %"struct.std::_Vector_base.6", ptr %5, i32 0, i32 0
  %7 = getelementptr inbounds %"struct.std::_Vector_base<faiss::OnDiskOneList, std::allocator<faiss::OnDiskOneList>>::_Vector_impl_data", ptr %6, i32 0, i32 0
  %8 = load ptr, ptr %7, align 8
  %9 = load i64, ptr %4, align 8
  %10 = getelementptr inbounds %"struct.faiss::OnDiskOneList", ptr %8, i64 %9
  ret ptr %10
}

; Function Attrs: mustprogress nounwind uwtable
define void @_ZN5faiss19OnDiskInvertedLists19set_all_lists_sizesEPKm(ptr noundef nonnull align 8 dereferenceable(156) %0, ptr noundef %1) #0 align 2 {
  %3 = alloca ptr, align 8
  %4 = alloca ptr, align 8
  %5 = alloca i64, align 8
  %6 = alloca i64, align 8
  store ptr %0, ptr %3, align 8
  store ptr %1, ptr %4, align 8
  %7 = load ptr, ptr %3, align 8
  store i64 0, ptr %5, align 8
  store i64 0, ptr %6, align 8
  br label %8

8:                                                ; preds = %41, %2
  %9 = load i64, ptr %6, align 8
  %10 = getelementptr inbounds %"struct.faiss::InvertedLists", ptr %7, i32 0, i32 1
  %11 = load i64, ptr %10, align 8
  %12 = icmp ult i64 %9, %11
  br i1 %12, label %13, label %44

13:                                               ; preds = %8
  %14 = load i64, ptr %5, align 8
  %15 = getelementptr inbounds %"struct.faiss::OnDiskInvertedLists", ptr %7, i32 0, i32 2
  %16 = load i64, ptr %6, align 8
  %17 = call noundef nonnull align 8 dereferenceable(24) ptr @_ZNSt6vectorIN5faiss13OnDiskOneListESaIS1_EEixEm(ptr noundef nonnull align 8 dereferenceable(24) %15, i64 noundef %16) #13
  %18 = getelementptr inbounds %"struct.faiss::OnDiskOneList", ptr %17, i32 0, i32 2
  store i64 %14, ptr %18, align 8
  %19 = load ptr, ptr %4, align 8
  %20 = load i64, ptr %6, align 8
  %21 = getelementptr inbounds i64, ptr %19, i64 %20
  %22 = load i64, ptr %21, align 8
  %23 = getelementptr inbounds %"struct.faiss::OnDiskInvertedLists", ptr %7, i32 0, i32 2
  %24 = load i64, ptr %6, align 8
  %25 = call noundef nonnull align 8 dereferenceable(24) ptr @_ZNSt6vectorIN5faiss13OnDiskOneListESaIS1_EEixEm(ptr noundef nonnull align 8 dereferenceable(24) %23, i64 noundef %24) #13
  %26 = getelementptr inbounds %"struct.faiss::OnDiskOneList", ptr %25, i32 0, i32 0
  store i64 %22, ptr %26, align 8
  %27 = getelementptr inbounds %"struct.faiss::OnDiskInvertedLists", ptr %7, i32 0, i32 2
  %28 = load i64, ptr %6, align 8
  %29 = call noundef nonnull align 8 dereferenceable(24) ptr @_ZNSt6vectorIN5faiss13OnDiskOneListESaIS1_EEixEm(ptr noundef nonnull align 8 dereferenceable(24) %27, i64 noundef %28) #13
  %30 = getelementptr inbounds %"struct.faiss::OnDiskOneList", ptr %29, i32 0, i32 1
  store i64 %22, ptr %30, align 8
  %31 = load ptr, ptr %4, align 8
  %32 = load i64, ptr %6, align 8
  %33 = getelementptr inbounds i64, ptr %31, i64 %32
  %34 = load i64, ptr %33, align 8
  %35 = getelementptr inbounds %"struct.faiss::InvertedLists", ptr %7, i32 0, i32 2
  %36 = load i64, ptr %35, align 8
  %37 = add i64 8, %36
  %38 = mul i64 %34, %37
  %39 = load i64, ptr %5, align 8
  %40 = add i64 %39, %38
  store i64 %40, ptr %5, align 8
  br label %41

41:                                               ; preds = %13
  %42 = load i64, ptr %6, align 8
  %43 = add i64 %42, 1
  store i64 %43, ptr %6, align 8
  br label %8, !llvm.loop !37

44:                                               ; preds = %8
  ret void
}