; Function Attrs: mustprogress nofree norecurse nosync nounwind memory(write, argmem: readwrite, inaccessiblemem: none) uwtable
define void @_ZN5faiss19OnDiskInvertedLists19set_all_lists_sizesEPKm(ptr nocapture noundef nonnull readonly align 8 dereferenceable(156) %0, ptr nocapture noundef readonly %1) local_unnamed_addr #18 align 2 {
  %3 = getelementptr inbounds i8, ptr %0, i64 8
  %4 = load i64, ptr %3, align 8
  %.not = icmp eq i64 %4, 0
  br i1 %.not, label %._crit_edge, label %.lr.ph

.lr.ph:                                           ; preds = %2
  %5 = getelementptr inbounds i8, ptr %0, i64 32
  %6 = getelementptr inbounds i8, ptr %0, i64 16
  br label %7

7:                                                ; preds = %.lr.ph, %7
  %.013 = phi i64 [ 0, %.lr.ph ], [ %21, %7 ]
  %.01112 = phi i64 [ 0, %.lr.ph ], [ %20, %7 ]
  %8 = load ptr, ptr %5, align 8
  %9 = getelementptr inbounds %"struct.faiss::OnDiskOneList", ptr %8, i64 %.013, i32 2
  store i64 %.01112, ptr %9, align 8
  %10 = getelementptr inbounds i64, ptr %1, i64 %.013
  %11 = load i64, ptr %10, align 8
  %12 = load ptr, ptr %5, align 8
  %13 = getelementptr inbounds %"struct.faiss::OnDiskOneList", ptr %12, i64 %.013
  store i64 %11, ptr %13, align 8
  %14 = load ptr, ptr %5, align 8
  %15 = getelementptr inbounds %"struct.faiss::OnDiskOneList", ptr %14, i64 %.013, i32 1
  store i64 %11, ptr %15, align 8
  %16 = load i64, ptr %10, align 8
  %17 = load i64, ptr %6, align 8
  %18 = add i64 %17, 8
  %19 = mul i64 %18, %16
  %20 = add i64 %19, %.01112
  %21 = add nuw i64 %.013, 1
  %22 = load i64, ptr %3, align 8
  %23 = icmp ult i64 %21, %22
  br i1 %23, label %7, label %._crit_edge, !llvm.loop !43

._crit_edge:                                      ; preds = %7, %2
  ret void
}